target datalayout = "e-m:e-p270:32:32-p271:32:32-p272:64:64-i64:64-i128:128-f80:128-n8:16:32:64-S128"
target triple = "x86_64-pc-linux-gnu"

%struct.commit_extra_header = type { ptr, ptr, ptr, i64 }

@.str.31 = private unnamed_addr constant [9 x i8] c"mergetag\00", align 1

; Function Attrs: nounwind uwtable
define dso_local void @free_commit_extra_headers(ptr noundef %0) #0 {
  %2 = alloca ptr, align 8
  %3 = alloca ptr, align 8
  store ptr %0, ptr %2, align 8, !tbaa !199
  br label %4

4:                                                ; preds = %7, %1
  %5 = load ptr, ptr %2, align 8, !tbaa !199
  %6 = icmp ne ptr %5, null
  br i1 %6, label %7, label %19

7:                                                ; preds = %4
  call void @llvm.lifetime.start.p0(i64 8, ptr %3) #11
  %8 = load ptr, ptr %2, align 8, !tbaa !199
  %9 = getelementptr inbounds nuw %struct.commit_extra_header, ptr %8, i32 0, i32 0
  %10 = load ptr, ptr %9, align 8, !tbaa !208
  store ptr %10, ptr %3, align 8, !tbaa !199
  %11 = load ptr, ptr %2, align 8, !tbaa !199
  %12 = getelementptr inbounds nuw %struct.commit_extra_header, ptr %11, i32 0, i32 1
  %13 = load ptr, ptr %12, align 8, !tbaa !201
  call void @free(ptr noundef %13) #11
  %14 = load ptr, ptr %2, align 8, !tbaa !199
  %15 = getelementptr inbounds nuw %struct.commit_extra_header, ptr %14, i32 0, i32 2
  %16 = load ptr, ptr %15, align 8, !tbaa !203
  call void @free(ptr noundef %16) #11
  %17 = load ptr, ptr %2, align 8, !tbaa !199
  call void @free(ptr noundef %17) #11
  %18 = load ptr, ptr %3, align 8, !tbaa !199
  store ptr %18, ptr %2, align 8, !tbaa !199
  call void @llvm.lifetime.end.p0(i64 8, ptr %3) #11
  br label %4, !llvm.loop !210

19:                                               ; preds = %4
  ret void
}

; Function Attrs: nounwind uwtable
define dso_local i32 @for_each_mergetag(ptr noundef %0, ptr noundef %1, ptr noundef %2) #0 {
  %4 = alloca ptr, align 8
  %5 = alloca ptr, align 8
  %6 = alloca ptr, align 8
  %7 = alloca ptr, align 8
  %8 = alloca ptr, align 8
  %9 = alloca i32, align 4
  store ptr %0, ptr %4, align 8, !tbaa !48
  store ptr %1, ptr %5, align 8, !tbaa !17
  store ptr %2, ptr %6, align 8, !tbaa !48
  call void @llvm.lifetime.start.p0(i64 8, ptr %7) #11
  call void @llvm.lifetime.start.p0(i64 8, ptr %8) #11
  call void @llvm.lifetime.start.p0(i64 4, ptr %9) #11
  store i32 0, ptr %9, align 4, !tbaa !11
  %10 = load ptr, ptr %5, align 8, !tbaa !17
  %11 = call ptr @read_commit_extra_headers(ptr noundef %10, ptr noundef null)
  store ptr %11, ptr %8, align 8, !tbaa !199
  %12 = load ptr, ptr %8, align 8, !tbaa !199
  store ptr %12, ptr %7, align 8, !tbaa !199
  br label %13

13:                                               ; preds = %34, %3
  %14 = load i32, ptr %9, align 4, !tbaa !11
  %15 = icmp ne i32 %14, 0
  br i1 %15, label %19, label %16

16:                                               ; preds = %13
  %17 = load ptr, ptr %7, align 8, !tbaa !199
  %18 = icmp ne ptr %17, null
  br label %19

19:                                               ; preds = %16, %13
  %20 = phi i1 [ false, %13 ], [ %18, %16 ]
  br i1 %20, label %21, label %38

21:                                               ; preds = %19
  %22 = load ptr, ptr %7, align 8, !tbaa !199
  %23 = getelementptr inbounds nuw %struct.commit_extra_header, ptr %22, i32 0, i32 1
  %24 = load ptr, ptr %23, align 8, !tbaa !201
  %25 = call i32 @strcmp(ptr noundef %24, ptr noundef @.str.31) #13
  %26 = icmp ne i32 %25, 0
  br i1 %26, label %27, label %28

27:                                               ; preds = %21
  br label %34

28:                                               ; preds = %21
  %29 = load ptr, ptr %4, align 8, !tbaa !48
  %30 = load ptr, ptr %5, align 8, !tbaa !17
  %31 = load ptr, ptr %7, align 8, !tbaa !199
  %32 = load ptr, ptr %6, align 8, !tbaa !48
  %33 = call i32 %29(ptr noundef %30, ptr noundef %31, ptr noundef %32)
  store i32 %33, ptr %9, align 4, !tbaa !11
  br label %34

34:                                               ; preds = %28, %27
  %35 = load ptr, ptr %7, align 8, !tbaa !199
  %36 = getelementptr inbounds nuw %struct.commit_extra_header, ptr %35, i32 0, i32 0
  %37 = load ptr, ptr %36, align 8, !tbaa !208
  store ptr %37, ptr %7, align 8, !tbaa !199
  br label %13, !llvm.loop !209

38:                                               ; preds = %19
  %39 = load ptr, ptr %8, align 8, !tbaa !199
  call void @free_commit_extra_headers(ptr noundef %39)
  %40 = load i32, ptr %9, align 4, !tbaa !11
  call void @llvm.lifetime.end.p0(i64 4, ptr %9) #11
  call void @llvm.lifetime.end.p0(i64 8, ptr %8) #11
  call void @llvm.lifetime.end.p0(i64 8, ptr %7) #11
  ret i32 %40
}