; Function Attrs: nounwind uwtable
define dso_local i32 @for_each_mergetag(ptr noundef readonly captures(none) %0, ptr noundef %1, ptr noundef %2) local_unnamed_addr #0 {
  %4 = tail call ptr @read_commit_extra_headers(ptr noundef %1, ptr noundef null)
  %.not14 = icmp eq ptr %4, null
  br i1 %.not14, label %free_commit_extra_headers.exit, label %.lr.ph

.lr.ph:                                           ; preds = %3, %10
  %.01113 = phi ptr [ %11, %10 ], [ %4, %3 ]
  %5 = getelementptr inbounds nuw i8, ptr %.01113, i64 8
  %6 = load ptr, ptr %5, align 8, !tbaa !173
  %7 = tail call i32 @strcmp(ptr noundef nonnull dereferenceable(1) %6, ptr noundef nonnull dereferenceable(9) @.str.31) #26
  %.not12 = icmp eq i32 %7, 0
  br i1 %.not12, label %8, label %10

8:                                                ; preds = %.lr.ph
  %9 = tail call i32 %0(ptr noundef %1, ptr noundef nonnull %.01113, ptr noundef %2) #24
  br label %10

10:                                               ; preds = %.lr.ph, %8
  %.1 = phi i32 [ 0, %.lr.ph ], [ %9, %8 ]
  %11 = load ptr, ptr %.01113, align 8, !tbaa !183
  %.not = icmp eq i32 %.1, 0
  %12 = icmp ne ptr %11, null
  %13 = select i1 %.not, i1 %12, i1 false
  br i1 %13, label %.lr.ph, label %.lr.ph.i, !llvm.loop !184

.lr.ph.i:                                         ; preds = %10, %.lr.ph.i
  %.07.i = phi ptr [ %14, %.lr.ph.i ], [ %4, %10 ]
  %14 = load ptr, ptr %.07.i, align 8, !tbaa !183
  %15 = getelementptr inbounds nuw i8, ptr %.07.i, i64 8
  %16 = load ptr, ptr %15, align 8, !tbaa !173
  tail call void @free(ptr noundef %16) #24
  %17 = getelementptr inbounds nuw i8, ptr %.07.i, i64 16
  %18 = load ptr, ptr %17, align 8, !tbaa !176
  tail call void @free(ptr noundef %18) #24
  tail call void @free(ptr noundef nonnull %.07.i) #24
  %.not.i = icmp eq ptr %14, null
  br i1 %.not.i, label %free_commit_extra_headers.exit, label %.lr.ph.i, !llvm.loop !185

free_commit_extra_headers.exit:                   ; preds = %.lr.ph.i, %3
  %.0.lcssa16 = phi i32 [ 0, %3 ], [ %.1, %.lr.ph.i ]
  ret i32 %.0.lcssa16
}